target datalayout = "e-m:e-p270:32:32-p271:32:32-p272:64:64-i64:64-i128:128-f80:128-n8:16:32:64-S128"
target triple = "x86_64-pc-linux-gnu"

%struct._sccp_user_t = type { i32, ptr, ptr, i32, i8, ptr }
%struct._value_string = type { i32, ptr }

; Function Attrs: null_pointer_is_valid sspstrong uwtable
define internal void @sccp_users_user_set_cb(ptr noundef %0, ptr noundef %1, i32 noundef %2, ptr noundef %3, ptr noundef %4) #0 {
  %6 = alloca ptr, align 8
  %7 = alloca ptr, align 8
  %8 = alloca i32, align 4
  %9 = alloca ptr, align 8
  %10 = alloca ptr, align 8
  %11 = alloca i32, align 4
  %12 = alloca ptr, align 8
  %13 = alloca ptr, align 8
  %14 = alloca i32, align 4
  store ptr %0, ptr %6, align 8
  store ptr %1, ptr %7, align 8
  store i32 %2, ptr %8, align 4
  store ptr %3, ptr %9, align 8
  store ptr %4, ptr %10, align 8
  call void @llvm.lifetime.start.p0(i64 4, ptr %11) #10
  call void @llvm.lifetime.start.p0(i64 8, ptr %12) #10
  %15 = load ptr, ptr %7, align 8
  %16 = load i32, ptr %8, align 4
  %17 = zext i32 %16 to i64
  %18 = call noalias ptr @g_strndup(ptr noundef %15, i64 noundef %17)
  store ptr %18, ptr %12, align 8
  call void @llvm.lifetime.start.p0(i64 8, ptr %13) #10
  %19 = load ptr, ptr %6, align 8
  %20 = getelementptr inbounds nuw %struct._sccp_user_t, ptr %19, i32 0, i32 3
  store i32 0, ptr %20, align 8
  store i32 0, ptr %11, align 4
  br label %21

21:                                               ; preds = %45, %5
  %22 = load ptr, ptr %9, align 8
  %23 = load i32, ptr %11, align 4
  %24 = zext i32 %23 to i64
  %25 = getelementptr %struct._value_string, ptr %22, i64 %24
  %26 = getelementptr inbounds nuw %struct._value_string, ptr %25, i32 0, i32 1
  %27 = load ptr, ptr %26, align 8
  store ptr %27, ptr %13, align 8
  %28 = icmp ne ptr %27, null
  br i1 %28, label %29, label %48

29:                                               ; preds = %21
  %30 = load ptr, ptr %13, align 8
  %31 = load ptr, ptr %12, align 8
  %32 = call i32 @g_str_equal(ptr noundef %30, ptr noundef %31)
  %33 = icmp ne i32 %32, 0
  br i1 %33, label %34, label %44

34:                                               ; preds = %29
  %35 = load ptr, ptr %9, align 8
  %36 = load i32, ptr %11, align 4
  %37 = zext i32 %36 to i64
  %38 = getelementptr %struct._value_string, ptr %35, i64 %37
  %39 = getelementptr inbounds nuw %struct._value_string, ptr %38, i32 0, i32 0
  %40 = load i32, ptr %39, align 8
  %41 = load ptr, ptr %6, align 8
  %42 = getelementptr inbounds nuw %struct._sccp_user_t, ptr %41, i32 0, i32 3
  store i32 %40, ptr %42, align 8
  %43 = load ptr, ptr %12, align 8
  call void @g_free(ptr noundef %43)
  store i32 1, ptr %14, align 4
  br label %50

44:                                               ; preds = %29
  br label %45

45:                                               ; preds = %44
  %46 = load i32, ptr %11, align 4
  %47 = add i32 %46, 1
  store i32 %47, ptr %11, align 4
  br label %21, !llvm.loop !11

48:                                               ; preds = %21
  %49 = load ptr, ptr %12, align 8
  call void @g_free(ptr noundef %49)
  store i32 0, ptr %14, align 4
  br label %50

50:                                               ; preds = %48, %34
  call void @llvm.lifetime.end.p0(i64 8, ptr %13) #10
  call void @llvm.lifetime.end.p0(i64 8, ptr %12) #10
  call void @llvm.lifetime.end.p0(i64 4, ptr %11) #10
  %51 = load i32, ptr %14, align 4
  switch i32 %51, label %53 [
    i32 0, label %52
    i32 1, label %52
  ]

52:                                               ; preds = %50, %50
  ret void

53:                                               ; preds = %50
  unreachable
}